; Function Attrs: nounwind uwtable
define ptr @l_Array_foldrMUnsafe_fold___at_Lean_Meta_IndPredBelow_mkContext_addMotives___spec__1___lambda__1(ptr noundef %0, ptr noundef %1, ptr noundef %2, ptr noundef %3, ptr noundef %4, ptr noundef %5, ptr noundef %6, ptr noundef %7, ptr noundef %8) local_unnamed_addr #0 {
  %10 = tail call ptr @l_Array_insertIdxIfInBounds___rarg(ptr noundef %0, ptr noundef %1, ptr noundef %3) #6
  %11 = tail call ptr @l_Lean_Meta_mkForallFVars(ptr noundef %10, ptr noundef %2, i8 noundef zeroext 0, i8 noundef zeroext 1, i8 noundef zeroext 1, ptr noundef %4, ptr noundef %5, ptr noundef %6, ptr noundef %7, ptr noundef %8) #6
  %12 = ptrtoint ptr %10 to i64
  %13 = and i64 %12, 1
  %.not = icmp eq i64 %13, 0
  br i1 %.not, label %14, label %lean_dec.exit

14:                                               ; preds = %9
  %15 = load i32, ptr %10, align 4, !tbaa !12
  %16 = icmp sgt i32 %15, 1
  br i1 %16, label %17, label %19, !prof !11

17:                                               ; preds = %14
  %18 = add nsw i32 %15, -1
  store i32 %18, ptr %10, align 4, !tbaa !12
  br label %lean_dec.exit

19:                                               ; preds = %14
  %.not.i = icmp eq i32 %15, 0
  br i1 %.not.i, label %lean_dec.exit, label %20

20:                                               ; preds = %19
  tail call void @lean_dec_ref_cold(ptr noundef nonnull %10) #6
  br label %lean_dec.exit

lean_dec.exit:                                    ; preds = %20, %19, %17, %9
  ret ptr %11
}